((dp1
I0
(dp2
S'v'
(lp3
sS'det'
p4
(lp5
S's3'
p6
asS'prep'
p7
(lp8
sS'$'
(lp9
sS'n'
(lp10
S's4'
p11
assI1
(dp12
S'v'
(lp13
sg4
(lp14
sg7
(lp15
S's6'
p16
asS'$'
(lp17
S'acc'
p18
asS'n'
(lp19
ssI2
(dp20
S'v'
(lp21
S's7'
p22
asg4
(lp23
sg7
(lp24
g16
asS'$'
(lp25
sS'n'
(lp26
ssI3
(dp27
S'v'
(lp28
sg4
(lp29
sg7
(lp30
sS'$'
(lp31
sS'n'
(lp32
S's10'
p33
assI4
(dp34
S'v'
(lp35
S'r2'
p36
asg4
(lp37
sg7
(lp38
g36
asS'$'
(lp39
g36
asS'n'
(lp40
ssI5
(dp41
S'v'
(lp42
sg4
(lp43
sg7
(lp44
S'r1'
p45
asS'$'
(lp46
g45
asS'n'
(lp47
ssI6
(dp48
S'v'
(lp49
sg4
(lp50
g6
asg7
(lp51
sS'$'
(lp52
sS'n'
(lp53
g11
assI7
(dp54
S'v'
(lp55
sg4
(lp56
g6
asg7
(lp57
sS'$'
(lp58
sS'n'
(lp59
g11
assI8
(dp60
S'v'
(lp61
sg4
(lp62
sg7
(lp63
S'r0'
p64
asS'$'
(lp65
g64
asS'n'
(lp66
ssI9
(dp67
S'v'
(lp68
S'r4'
p69
asg4
(lp70
sg7
(lp71
g69
asS'$'
(lp72
g69
asS'n'
(lp73
ssI10
(dp74
S'v'
(lp75
S'r3'
p76
asg4
(lp77
sg7
(lp78
g76
asS'$'
(lp79
g76
asS'n'
(lp80
ssI11
(dp81
S'v'
(lp82
S'r5'
p83
asg4
(lp84
sg7
(lp85
g83
ag16
asS'$'
(lp86
g83
asS'n'
(lp87
ssI12
(dp88
S'v'
(lp89
sg4
(lp90
sg7
(lp91
S'r6'
p92
ag16
asS'$'
(lp93
g92
asS'n'
(lp94
ss(dp95
I0
(dp96
S'NP'
p97
(lp98
I2
asS'VP'
p99
(lp100
sS'S'
(lp101
I1
asS'PP'
p102
(lp103
ssI1
(dp104
g97
(lp105
sg99
(lp106
sS'S'
(lp107
sg102
(lp108
I5
assI2
(dp109
g97
(lp110
sg99
(lp111
I8
asS'S'
(lp112
sg102
(lp113
I9
assI3
(dp114
g97
(lp115
sg99
(lp116
sS'S'
(lp117
sg102
(lp118
ssI4
(dp119
g97
(lp120
sg99
(lp121
sS'S'
(lp122
sg102
(lp123
ssI5
(dp124
g97
(lp125
sg99
(lp126
sS'S'
(lp127
sg102
(lp128
ssI6
(dp129
g97
(lp130
I11
asg99
(lp131
sS'S'
(lp132
sg102
(lp133
ssI7
(dp134
g97
(lp135
I12
asg99
(lp136
sS'S'
(lp137
sg102
(lp138
ssI8
(dp139
g97
(lp140
sg99
(lp141
sS'S'
(lp142
sg102
(lp143
ssI9
(dp144
g97
(lp145
sg99
(lp146
sS'S'
(lp147
sg102
(lp148
ssI10
(dp149
g97
(lp150
sg99
(lp151
sS'S'
(lp152
sg102
(lp153
ssI11
(dp154
g97
(lp155
sg99
(lp156
sS'S'
(lp157
sg102
(lp158
I9
assI12
(dp159
g97
(lp160
sg99
(lp161
sS'S'
(lp162
sg102
(lp163
I9
ass(dp164
I0
ccopy_reg
_reconstructor
p165
(cRule
Rule
p166
c__builtin__
object
p167
NtRp168
(dp169
S'index'
p170
I0
sS'rhs'
p171
(lp172
g97
ag99
asS'lhs'
p173
S'S'
sS'loglikelihood'
p174
F-0.69314718055994529
sS'probability'
p175
F0.5
sbsI1
g165
(g166
g167
NtRp176
(dp177
g170
I1
sg171
(lp178
S'S'
ag102
asg173
S'S'
sg174
F-0.69314718055994529
sg175
F0.5
sbsI2
g165
(g166
g167
NtRp179
(dp180
g170
I2
sg171
(lp181
S'n'
asg173
S'NP'
p182
sg174
F-1.0986122886681098
sg175
F0.33333333333333331
sbsI3
g165
(g166
g167
NtRp183
(dp184
g170
I3
sg171
(lp185
g4
aS'n'
asg173
S'NP'
p186
sg174
F-1.0986122886681098
sg175
F0.33333333333333331
sbsI4
g165
(g166
g167
NtRp187
(dp188
g170
I4
sg171
(lp189
S'NP'
p190
aS'PP'
p191
asg173
S'NP'
p192
sg174
F-1.0986122886681098
sg175
F0.33333333333333331
sbsI5
g165
(g166
g167
NtRp193
(dp194
g170
I5
sg171
(lp195
g7
aS'NP'
p196
asg173
S'PP'
p197
sg174
F0
sg175
F1
sbsI6
g165
(g166
g167
NtRp198
(dp199
g170
I6
sg171
(lp200
S'v'
aS'NP'
p201
asg173
S'VP'
p202
sg174
F0
sg175
F1
sbst.